target datalayout = "e-m:e-p270:32:32-p271:32:32-p272:64:64-i64:64-i128:128-f80:128-n8:16:32:64-S128"
target triple = "x86_64-pc-linux-gnu"

%struct._zend_executor_globals = type { %struct._zval_struct, %struct._zval_struct, [32 x ptr], ptr, ptr, %struct._zend_array, %struct._zend_array, ptr, i32, i32, ptr, ptr, ptr, ptr, ptr, ptr, i64, ptr, ptr, i32, i32, i64, i32, i32, i32, i8, i8, %struct.zend_atomic_bool_s, %struct.zend_atomic_bool_s, ptr, i64, ptr, ptr, %struct._zend_array, %struct._zend_array, i32, i8, %struct._zval_struct, %struct._zval_struct, %struct._zend_stack, %struct._zend_stack, %struct._zend_stack, ptr, i32, i32, i64, ptr, ptr, ptr, %struct._zend_objects_store, ptr, ptr, ptr, [3 x %struct._zend_op], ptr, i8, i8, i64, i32, i32, ptr, [16 x %struct._HashTableIterator], ptr, %union._zend_function, %struct._zend_op, %struct._zend_array, i64, %struct.zend_get_gc_buffer, ptr, ptr, ptr, i64, i8, i32, ptr, ptr, i64, %struct._zend_call_stack, i64, i64, [6 x ptr] }
%struct.zend_atomic_bool_s = type { i8 }
%struct._zval_struct = type { %union._zend_value, %union.anon, %union.anon.2 }
%union._zend_value = type { i64 }
%union.anon = type { i32 }
%union.anon.2 = type { i32 }
%struct._zend_stack = type { i32, i32, i32, ptr }
%struct._zend_objects_store = type { ptr, i32, i32, i32 }
%struct._HashTableIterator = type { ptr, i32, i32 }
%union._zend_function = type { %struct._zend_op_array }
%struct._zend_op_array = type { i8, [3 x i8], i32, ptr, ptr, ptr, i32, i32, ptr, ptr, ptr, ptr, i32, i32, i32, i32, ptr, ptr, ptr, ptr, ptr, i32, i32, ptr, ptr, ptr, i32, i32, i32, i32, ptr, ptr, [6 x ptr] }
%struct._zend_op = type { ptr, %union._znode_op, %union._znode_op, %union._znode_op, i32, i32, i8, i8, i8, i8 }
%union._znode_op = type { i32 }
%struct._zend_array = type { %struct._zend_refcounted_h, %union.anon.4, i32, %union.anon.6, i32, i32, i32, i32, i64, ptr }
%struct._zend_refcounted_h = type { i32, %union.anon.3 }
%union.anon.3 = type { i32 }
%union.anon.4 = type { i32 }
%union.anon.6 = type { ptr }
%struct.zend_get_gc_buffer = type { ptr, ptr, ptr }
%struct._zend_call_stack = type { ptr, i64 }
%struct._zend_module_entry = type { i16, i32, i8, i8, ptr, ptr, ptr, ptr, ptr, ptr, ptr, ptr, ptr, ptr, i64, ptr, ptr, ptr, ptr, i32, i8, ptr, i32, ptr }

@registered_zend_ini_directives = internal global ptr null, align 8
@executor_globals = external global %struct._zend_executor_globals, align 8
@module_registry = external global %struct._zend_array, align 8
@zend_unregister_ini_entries_ex.ini_directives = internal global ptr null, align 8

; Function Attrs: nounwind uwtable
define void @zend_unregister_ini_entries_ex(i32 noundef %0, i32 noundef %1) #0 {
  %3 = alloca i32, align 4
  %4 = alloca i32, align 4
  store i32 %0, ptr %3, align 4
  store i32 %1, ptr %4, align 4
  %5 = load i32, ptr %4, align 4
  %6 = icmp eq i32 %5, 2
  br i1 %6, label %7, label %9

7:                                                ; preds = %2
  %8 = load ptr, ptr getelementptr inbounds (%struct._zend_executor_globals, ptr @executor_globals, i32 0, i32 46), align 8
  store ptr %8, ptr @zend_unregister_ini_entries_ex.ini_directives, align 8
  br label %11

9:                                                ; preds = %2
  %10 = load ptr, ptr @registered_zend_ini_directives, align 8
  store ptr %10, ptr @zend_unregister_ini_entries_ex.ini_directives, align 8
  br label %11

11:                                               ; preds = %9, %7
  %12 = load ptr, ptr @zend_unregister_ini_entries_ex.ini_directives, align 8
  call void @zend_hash_apply_with_argument(ptr noundef %12, ptr noundef @zend_remove_ini_entries, ptr noundef %3)
  ret void
}

; Function Attrs: nounwind uwtable
define void @zend_unregister_ini_entries(i32 noundef %0) #0 {
  %2 = alloca ptr, align 8
  %3 = alloca i32, align 4
  %4 = alloca ptr, align 8
  %5 = alloca ptr, align 8
  %6 = alloca i32, align 4
  %7 = alloca i64, align 8
  %8 = alloca ptr, align 8
  store i32 %0, ptr %3, align 4
  br label %9

9:                                                ; preds = %1
  store ptr @module_registry, ptr %5, align 8
  %10 = load ptr, ptr %5, align 8
  %11 = getelementptr inbounds %struct._zend_array, ptr %10, i32 0, i32 4
  %12 = load i32, ptr %11, align 8
  store i32 %12, ptr %6, align 4
  %13 = load ptr, ptr %5, align 8
  %14 = getelementptr inbounds %struct._zend_array, ptr %13, i32 0, i32 1
  %15 = load i32, ptr %14, align 8
  %16 = xor i32 %15, -1
  %17 = and i32 %16, 4
  %18 = zext i32 %17 to i64
  %19 = mul i64 %18, 4
  %20 = add i64 16, %19
  store i64 %20, ptr %7, align 8
  %21 = load ptr, ptr %5, align 8
  %22 = getelementptr inbounds %struct._zend_array, ptr %21, i32 0, i32 3
  %23 = load ptr, ptr %22, align 8
  %24 = load i32, ptr %6, align 4
  %25 = zext i32 %24 to i64
  %26 = load i64, ptr %7, align 8
  %27 = mul i64 %25, %26
  %28 = getelementptr inbounds i8, ptr %23, i64 %27
  store ptr %28, ptr %8, align 8
  br label %29

29:                                               ; preds = %65, %9
  %30 = load i32, ptr %6, align 4
  %31 = icmp ugt i32 %30, 0
  br i1 %31, label %32, label %68

32:                                               ; preds = %29
  %33 = load ptr, ptr %8, align 8
  %34 = load i64, ptr %7, align 8
  %35 = sub i64 0, %34
  %36 = getelementptr inbounds i8, ptr %33, i64 %35
  store ptr %36, ptr %8, align 8
  %37 = load ptr, ptr %8, align 8
  store ptr %37, ptr %2, align 8
  %38 = load ptr, ptr %2, align 8
  %39 = getelementptr inbounds %struct._zval_struct, ptr %38, i32 0, i32 1
  %40 = load i8, ptr %39, align 8
  %41 = zext i8 %40 to i32
  %42 = icmp eq i32 %41, 0
  %43 = xor i1 %42, true
  %44 = xor i1 %43, true
  %45 = zext i1 %44 to i32
  %46 = sext i32 %45 to i64
  %47 = icmp ne i64 %46, 0
  br i1 %47, label %48, label %49

48:                                               ; preds = %32
  br label %65

49:                                               ; preds = %32
  %50 = load ptr, ptr %8, align 8
  %51 = getelementptr inbounds %struct._zval_struct, ptr %50, i32 0, i32 0
  %52 = load ptr, ptr %51, align 8
  store ptr %52, ptr %4, align 8
  %53 = load ptr, ptr %4, align 8
  %54 = getelementptr inbounds %struct._zend_module_entry, ptr %53, i32 0, i32 22
  %55 = load i32, ptr %54, align 8
  %56 = load i32, ptr %3, align 4
  %57 = icmp eq i32 %55, %56
  br i1 %57, label %58, label %64

58:                                               ; preds = %49
  %59 = load i32, ptr %3, align 4
  %60 = load ptr, ptr %4, align 8
  %61 = getelementptr inbounds %struct._zend_module_entry, ptr %60, i32 0, i32 20
  %62 = load i8, ptr %61, align 4
  %63 = zext i8 %62 to i32
  call void @zend_unregister_ini_entries_ex(i32 noundef %59, i32 noundef %63)
  br label %69

64:                                               ; preds = %49
  br label %65

65:                                               ; preds = %64, %48
  %66 = load i32, ptr %6, align 4
  %67 = add i32 %66, -1
  store i32 %67, ptr %6, align 4
  br label %29

68:                                               ; preds = %29
  br label %69

69:                                               ; preds = %68, %58
  ret void
}