; Function Attrs: nounwind uwtable
define void @zend_unregister_ini_entries(i32 noundef %0) local_unnamed_addr #0 {
  %2 = alloca i32, align 4
  %3 = load i32, ptr getelementptr inbounds (%struct._zend_array, ptr @module_registry, i64 0, i32 4), align 8
  %.not17 = icmp eq i32 %3, 0
  br i1 %.not17, label %.loopexit, label %.lr.ph

.lr.ph:                                           ; preds = %1
  %4 = load ptr, ptr getelementptr inbounds (%struct._zend_array, ptr @module_registry, i64 0, i32 3), align 8
  %5 = load i32, ptr getelementptr inbounds (%struct._zend_array, ptr @module_registry, i64 0, i32 1), align 8
  %6 = shl i32 %5, 2
  %7 = and i32 %6, 16
  %8 = xor i32 %7, 16
  %narrow = add nuw nsw i32 %8, 16
  %9 = zext nneg i32 %narrow to i64
  %10 = zext i32 %3 to i64
  %11 = mul nuw nsw i64 %9, %10
  %12 = getelementptr inbounds i8, ptr %4, i64 %11
  %13 = sub nsw i64 0, %9
  br label %14

14:                                               ; preds = %.lr.ph, %28
  %.019 = phi ptr [ %12, %.lr.ph ], [ %15, %28 ]
  %.01518 = phi i32 [ %3, %.lr.ph ], [ %29, %28 ]
  %15 = getelementptr inbounds i8, ptr %.019, i64 %13
  %16 = getelementptr inbounds i8, ptr %15, i64 8
  %17 = load i8, ptr %16, align 8
  %18 = icmp eq i8 %17, 0
  br i1 %18, label %28, label %19

19:                                               ; preds = %14
  %20 = load ptr, ptr %15, align 8
  %21 = getelementptr inbounds i8, ptr %20, i64 152
  %22 = load i32, ptr %21, align 8
  %23 = icmp eq i32 %22, %0
  br i1 %23, label %24, label %28

24:                                               ; preds = %19
  %25 = getelementptr inbounds i8, ptr %20, i64 140
  %26 = load i8, ptr %25, align 4
  call void @llvm.lifetime.start.p0(i64 4, ptr nonnull %2)
  store i32 %0, ptr %2, align 4
  %27 = icmp eq i8 %26, 2
  %.val.i = load ptr, ptr getelementptr inbounds (%struct._zend_executor_globals, ptr @executor_globals, i64 0, i32 46), align 8
  %registered_zend_ini_directives.val.i = load ptr, ptr @registered_zend_ini_directives, align 8
  %storemerge.i = select i1 %27, ptr %.val.i, ptr %registered_zend_ini_directives.val.i
  store ptr %storemerge.i, ptr @zend_unregister_ini_entries_ex.ini_directives, align 8
  call void @zend_hash_apply_with_argument(ptr noundef %storemerge.i, ptr noundef nonnull @zend_remove_ini_entries, ptr noundef nonnull %2) #20
  call void @llvm.lifetime.end.p0(i64 4, ptr nonnull %2)
  br label %.loopexit

28:                                               ; preds = %19, %14
  %29 = add i32 %.01518, -1
  %.not = icmp eq i32 %29, 0
  br i1 %.not, label %.loopexit, label %14

.loopexit:                                        ; preds = %28, %1, %24
  ret void
}